target datalayout = "e-m:e-p270:32:32-p271:32:32-p272:64:64-i64:64-i128:128-f80:128-n8:16:32:64-S128"
target triple = "x86_64-pc-linux-gnu"

%struct.H5F_t = type { ptr, ptr, ptr, ptr, i32, ptr, i8, i8, ptr, i32 }

@H5F_init_g = external global i8, align 1
@H5_libterm_g = external global i8, align 1
@.str.1 = private unnamed_addr constant [102 x i8] c"generated/home/dtcxzyw/WorkSpace/Projects/compilers/llvm-opt-benchmark/bench/hdf5/hdf5/src/H5Fsuper.c\00", align 1
@H5E_FILE_g = external global i64, align 8
@__func__.H5F__super_ext_close = private unnamed_addr constant [21 x i8] c"H5F__super_ext_close\00", align 1
@H5E_LINKCOUNT_g = external global i64, align 8
@.str.3 = private unnamed_addr constant [36 x i8] c"unable to increment hard link count\00", align 1
@H5E_CANTDEC_g = external global i64, align 8
@.str.4 = private unnamed_addr constant [53 x i8] c"unable to decrement refcount on superblock extension\00", align 1
@H5E_CANTCLOSEOBJ_g = external global i64, align 8
@.str.5 = private unnamed_addr constant [37 x i8] c"unable to close superblock extension\00", align 1

; Function Attrs: nounwind uwtable
define i32 @H5F__super_ext_close(ptr noundef %0, ptr noundef %1, i1 noundef zeroext %2) #0 {
  %4 = alloca ptr, align 8
  %5 = alloca ptr, align 8
  %6 = alloca i8, align 1
  %7 = alloca i32, align 4
  %8 = alloca i32, align 4
  %9 = alloca i8, align 1
  store ptr %0, ptr %4, align 8, !tbaa !3
  store ptr %1, ptr %5, align 8, !tbaa !10
  %10 = zext i1 %2 to i8
  store i8 %10, ptr %6, align 1, !tbaa !14
  call void @llvm.lifetime.start.p0(i64 4, ptr %7) #7
  store i32 0, ptr %7, align 4, !tbaa !12
  call void @llvm.lifetime.start.p0(i64 4, ptr %8) #7
  store i32 0, ptr %8, align 4, !tbaa !12
  call void @llvm.lifetime.start.p0(i64 1, ptr %9) #7
  store i8 0, ptr %9, align 1, !tbaa !14
  %11 = load i8, ptr @H5F_init_g, align 1, !tbaa !14, !range !16, !noundef !17
  %12 = trunc i8 %11 to i1
  br i1 %12, label %17, label %13

13:                                               ; preds = %3
  %14 = load i8, ptr @H5_libterm_g, align 1, !tbaa !14, !range !16, !noundef !17
  %15 = trunc i8 %14 to i1
  %16 = xor i1 %15, true
  br label %17

17:                                               ; preds = %13, %3
  %18 = phi i1 [ true, %3 ], [ %16, %13 ]
  %19 = xor i1 %18, true
  %20 = xor i1 %19, true
  %21 = zext i1 %20 to i32
  %22 = sext i32 %21 to i64
  %23 = call i64 @llvm.expect.i64(i64 %22, i64 1)
  %24 = icmp ne i64 %23, 0
  br i1 %24, label %25, label %113

25:                                               ; preds = %17
  %26 = load i8, ptr %6, align 1, !tbaa !14, !range !16, !noundef !17
  %27 = trunc i8 %26 to i1
  br i1 %27, label %28, label %75

28:                                               ; preds = %25
  call void @H5AC_set_ring(i32 noundef 4, ptr noundef %7)
  %29 = load ptr, ptr %5, align 8, !tbaa !10
  %30 = call i32 @H5O_link(ptr noundef %29, i32 noundef 1)
  %31 = icmp slt i32 %30, 0
  br i1 %31, label %32, label %51

32:                                               ; preds = %28
  br label %33

33:                                               ; preds = %32
  br label %34

34:                                               ; preds = %33
  br label %35

35:                                               ; preds = %34
  %36 = load i64, ptr @H5E_FILE_g, align 8, !tbaa !8
  %37 = load i64, ptr @H5E_LINKCOUNT_g, align 8, !tbaa !8
  %38 = call i32 (ptr, ptr, i32, i64, i64, ptr, ...) @H5E_printf_stack(ptr noundef @.str.1, ptr noundef @__func__.H5F__super_ext_close, i32 noundef 194, i64 noundef %36, i64 noundef %37, ptr noundef @.str.3)
  br label %39

39:                                               ; preds = %35
  br label %40

40:                                               ; preds = %39
  store i8 1, ptr %9, align 1, !tbaa !14
  %41 = load i8, ptr %9, align 1, !tbaa !14, !range !16, !noundef !17
  %42 = trunc i8 %41 to i1
  %43 = zext i1 %42 to i8
  store i8 %43, ptr %9, align 1, !tbaa !14
  br label %44

44:                                               ; preds = %40
  br label %45

45:                                               ; preds = %44
  br label %46

46:                                               ; preds = %45
  store i32 -1, ptr %8, align 4, !tbaa !12
  br label %107

47:                                               ; No predecessors!
  br label %48

48:                                               ; preds = %47
  br label %49

49:                                               ; preds = %48
  br label %50

50:                                               ; preds = %49
  br label %51

51:                                               ; preds = %50, %28
  %52 = load ptr, ptr %5, align 8, !tbaa !10
  %53 = call i32 @H5O_dec_rc_by_loc(ptr noundef %52)
  %54 = icmp slt i32 %53, 0
  br i1 %54, label %55, label %74

55:                                               ; preds = %51
  br label %56

56:                                               ; preds = %55
  br label %57

57:                                               ; preds = %56
  br label %58

58:                                               ; preds = %57
  %59 = load i64, ptr @H5E_FILE_g, align 8, !tbaa !8
  %60 = load i64, ptr @H5E_CANTDEC_g, align 8, !tbaa !8
  %61 = call i32 (ptr, ptr, i32, i64, i64, ptr, ...) @H5E_printf_stack(ptr noundef @.str.1, ptr noundef @__func__.H5F__super_ext_close, i32 noundef 198, i64 noundef %59, i64 noundef %60, ptr noundef @.str.4)
  br label %62

62:                                               ; preds = %58
  br label %63

63:                                               ; preds = %62
  store i8 1, ptr %9, align 1, !tbaa !14
  %64 = load i8, ptr %9, align 1, !tbaa !14, !range !16, !noundef !17
  %65 = trunc i8 %64 to i1
  %66 = zext i1 %65 to i8
  store i8 %66, ptr %9, align 1, !tbaa !14
  br label %67

67:                                               ; preds = %63
  br label %68

68:                                               ; preds = %67
  br label %69

69:                                               ; preds = %68
  store i32 -1, ptr %8, align 4, !tbaa !12
  br label %107

70:                                               ; No predecessors!
  br label %71

71:                                               ; preds = %70
  br label %72

72:                                               ; preds = %71
  br label %73

73:                                               ; preds = %72
  br label %74

74:                                               ; preds = %73, %51
  br label %75

75:                                               ; preds = %74, %25
  %76 = load ptr, ptr %4, align 8, !tbaa !3
  %77 = getelementptr inbounds nuw %struct.H5F_t, ptr %76, i32 0, i32 4
  %78 = load i32, ptr %77, align 8, !tbaa !21
  %79 = add i32 %78, 1
  store i32 %79, ptr %77, align 8, !tbaa !21
  %80 = load ptr, ptr %5, align 8, !tbaa !10
  %81 = call i32 @H5O_close(ptr noundef %80, ptr noundef null)
  %82 = icmp slt i32 %81, 0
  br i1 %82, label %83, label %102

83:                                               ; preds = %75
  br label %84

84:                                               ; preds = %83
  br label %85

85:                                               ; preds = %84
  br label %86

86:                                               ; preds = %85
  %87 = load i64, ptr @H5E_FILE_g, align 8, !tbaa !8
  %88 = load i64, ptr @H5E_CANTCLOSEOBJ_g, align 8, !tbaa !8
  %89 = call i32 (ptr, ptr, i32, i64, i64, ptr, ...) @H5E_printf_stack(ptr noundef @.str.1, ptr noundef @__func__.H5F__super_ext_close, i32 noundef 204, i64 noundef %87, i64 noundef %88, ptr noundef @.str.5)
  br label %90

90:                                               ; preds = %86
  br label %91

91:                                               ; preds = %90
  store i8 1, ptr %9, align 1, !tbaa !14
  %92 = load i8, ptr %9, align 1, !tbaa !14, !range !16, !noundef !17
  %93 = trunc i8 %92 to i1
  %94 = zext i1 %93 to i8
  store i8 %94, ptr %9, align 1, !tbaa !14
  br label %95

95:                                               ; preds = %91
  br label %96

96:                                               ; preds = %95
  br label %97

97:                                               ; preds = %96
  store i32 -1, ptr %8, align 4, !tbaa !12
  br label %107

98:                                               ; No predecessors!
  br label %99

99:                                               ; preds = %98
  br label %100

100:                                              ; preds = %99
  br label %101

101:                                              ; preds = %100
  br label %102

102:                                              ; preds = %101, %75
  %103 = load ptr, ptr %4, align 8, !tbaa !3
  %104 = getelementptr inbounds nuw %struct.H5F_t, ptr %103, i32 0, i32 4
  %105 = load i32, ptr %104, align 8, !tbaa !21
  %106 = add i32 %105, -1
  store i32 %106, ptr %104, align 8, !tbaa !21
  br label %107

107:                                              ; preds = %102, %97, %69, %46
  %108 = load i32, ptr %7, align 4, !tbaa !12
  %109 = icmp ne i32 %108, 0
  br i1 %109, label %110, label %112

110:                                              ; preds = %107
  %111 = load i32, ptr %7, align 4, !tbaa !12
  call void @H5AC_set_ring(i32 noundef %111, ptr noundef null)
  br label %112

112:                                              ; preds = %110, %107
  br label %113

113:                                              ; preds = %112, %17
  %114 = load i32, ptr %8, align 4, !tbaa !12
  call void @llvm.lifetime.end.p0(i64 1, ptr %9) #7
  call void @llvm.lifetime.end.p0(i64 4, ptr %8) #7
  call void @llvm.lifetime.end.p0(i64 4, ptr %7) #7
  ret i32 %114
}