; Function Attrs: nounwind uwtable
define range(i32 -1, 1) i32 @H5F__super_ext_close(ptr noundef captures(none) %0, ptr noundef %1, i1 noundef zeroext %2) local_unnamed_addr #0 {
  %4 = alloca i32, align 4
  call void @llvm.lifetime.start.p0(i64 4, ptr nonnull %4) #6
  store i32 0, ptr %4, align 4, !tbaa !17
  %5 = load i8, ptr @H5F_init_g, align 1, !tbaa !3, !range !7, !noundef !8
  %6 = trunc nuw i8 %5 to i1
  %7 = load i8, ptr @H5_libterm_g, align 1, !range !7
  %8 = trunc nuw i8 %7 to i1
  %9 = xor i1 %8, true
  %10 = select i1 %6, i1 true, i1 %9
  br i1 %10, label %11, label %42, !prof !9

11:                                               ; preds = %3
  br i1 %2, label %12, label %26

12:                                               ; preds = %11
  call void @H5AC_set_ring(i32 noundef 4, ptr noundef nonnull %4) #6
  %13 = call i32 @H5O_link(ptr noundef %1, i32 noundef 1) #6
  %14 = icmp slt i32 %13, 0
  br i1 %14, label %15, label %19

15:                                               ; preds = %12
  %16 = load i64, ptr @H5E_FILE_g, align 8, !tbaa !16
  %17 = load i64, ptr @H5E_LINKCOUNT_g, align 8, !tbaa !16
  %18 = call i32 (ptr, ptr, i32, i64, i64, ptr, ...) @H5E_printf_stack(ptr noundef nonnull @.str.1, ptr noundef nonnull @__func__.H5F__super_ext_close, i32 noundef 194, i64 noundef %16, i64 noundef %17, ptr noundef nonnull @.str.3) #6
  br label %39

19:                                               ; preds = %12
  %20 = call i32 @H5O_dec_rc_by_loc(ptr noundef %1) #6
  %21 = icmp slt i32 %20, 0
  br i1 %21, label %22, label %26

22:                                               ; preds = %19
  %23 = load i64, ptr @H5E_FILE_g, align 8, !tbaa !16
  %24 = load i64, ptr @H5E_CANTDEC_g, align 8, !tbaa !16
  %25 = call i32 (ptr, ptr, i32, i64, i64, ptr, ...) @H5E_printf_stack(ptr noundef nonnull @.str.1, ptr noundef nonnull @__func__.H5F__super_ext_close, i32 noundef 198, i64 noundef %23, i64 noundef %24, ptr noundef nonnull @.str.4) #6
  br label %39

26:                                               ; preds = %19, %11
  %27 = getelementptr inbounds nuw i8, ptr %0, i64 32
  %28 = load i32, ptr %27, align 8, !tbaa !19
  %29 = add i32 %28, 1
  store i32 %29, ptr %27, align 8, !tbaa !19
  %30 = call i32 @H5O_close(ptr noundef %1, ptr noundef null) #6
  %31 = icmp slt i32 %30, 0
  br i1 %31, label %32, label %36

32:                                               ; preds = %26
  %33 = load i64, ptr @H5E_FILE_g, align 8, !tbaa !16
  %34 = load i64, ptr @H5E_CANTCLOSEOBJ_g, align 8, !tbaa !16
  %35 = call i32 (ptr, ptr, i32, i64, i64, ptr, ...) @H5E_printf_stack(ptr noundef nonnull @.str.1, ptr noundef nonnull @__func__.H5F__super_ext_close, i32 noundef 204, i64 noundef %33, i64 noundef %34, ptr noundef nonnull @.str.5) #6
  br label %39

36:                                               ; preds = %26
  %37 = load i32, ptr %27, align 8, !tbaa !19
  %38 = add i32 %37, -1
  store i32 %38, ptr %27, align 8, !tbaa !19
  br label %39

39:                                               ; preds = %36, %32, %22, %15
  %.1 = phi i32 [ -1, %15 ], [ -1, %22 ], [ -1, %32 ], [ 0, %36 ]
  %40 = load i32, ptr %4, align 4, !tbaa !17
  %.not = icmp eq i32 %40, 0
  br i1 %.not, label %42, label %41

41:                                               ; preds = %39
  call void @H5AC_set_ring(i32 noundef %40, ptr noundef null) #6
  br label %42

42:                                               ; preds = %39, %41, %3
  %.0 = phi i32 [ %.1, %41 ], [ %.1, %39 ], [ 0, %3 ]
  call void @llvm.lifetime.end.p0(i64 4, ptr nonnull %4) #6
  ret i32 %.0
}